; Function Attrs: nounwind uwtable
define ptr @l___private_Init_Data_List_BasicAux_0__List_get_match__1_splitter___rarg(ptr noundef %0, ptr noundef %1, ptr noundef %2, ptr noundef %3) local_unnamed_addr #0 {
  %5 = getelementptr inbounds nuw i8, ptr %0, i64 8
  %6 = load ptr, ptr %5, align 8, !tbaa !10
  %7 = ptrtoint ptr %6 to i64
  %8 = and i64 %7, 1
  %.not = icmp eq i64 %8, 0
  br i1 %.not, label %9, label %lean_inc.exit23

9:                                                ; preds = %4
  %.val.i = load i32, ptr %6, align 4, !tbaa !4
  %10 = icmp sgt i32 %.val.i, 0
  br i1 %10, label %11, label %13, !prof !9

11:                                               ; preds = %9
  %12 = add nuw i32 %.val.i, 1
  store i32 %12, ptr %6, align 4, !tbaa !4
  br label %lean_inc.exit23

13:                                               ; preds = %9
  %.not.i29 = icmp eq i32 %.val.i, 0
  br i1 %.not.i29, label %lean_inc.exit23, label %14

14:                                               ; preds = %13
  tail call void @lean_inc_ref_cold(ptr noundef nonnull %6) #4
  br label %lean_inc.exit23

lean_inc.exit23:                                  ; preds = %14, %13, %11, %4
  %15 = getelementptr inbounds nuw i8, ptr %0, i64 16
  %16 = load ptr, ptr %15, align 8, !tbaa !10
  %17 = ptrtoint ptr %16 to i64
  %18 = and i64 %17, 1
  %.not33 = icmp eq i64 %18, 0
  br i1 %.not33, label %19, label %lean_inc.exit

19:                                               ; preds = %lean_inc.exit23
  %.val.i30 = load i32, ptr %16, align 4, !tbaa !4
  %20 = icmp sgt i32 %.val.i30, 0
  br i1 %20, label %21, label %23, !prof !9

21:                                               ; preds = %19
  %22 = add nuw i32 %.val.i30, 1
  store i32 %22, ptr %16, align 4, !tbaa !4
  br label %lean_inc.exit

23:                                               ; preds = %19
  %.not.i31 = icmp eq i32 %.val.i30, 0
  br i1 %.not.i31, label %lean_inc.exit, label %24

24:                                               ; preds = %23
  tail call void @lean_inc_ref_cold(ptr noundef nonnull %16) #4
  br label %lean_inc.exit

lean_inc.exit:                                    ; preds = %24, %23, %21, %lean_inc.exit23
  %25 = ptrtoint ptr %0 to i64
  %26 = and i64 %25, 1
  %.not34 = icmp eq i64 %26, 0
  br i1 %.not34, label %27, label %lean_dec.exit22

27:                                               ; preds = %lean_inc.exit
  %28 = load i32, ptr %0, align 4, !tbaa !4
  %29 = icmp sgt i32 %28, 1
  br i1 %29, label %30, label %32, !prof !9

30:                                               ; preds = %27
  %31 = add nsw i32 %28, -1
  store i32 %31, ptr %0, align 4, !tbaa !4
  br label %lean_dec.exit22

32:                                               ; preds = %27
  %.not.i = icmp eq i32 %28, 0
  br i1 %.not.i, label %lean_dec.exit22, label %33

33:                                               ; preds = %32
  tail call void @lean_dec_ref_cold(ptr noundef nonnull %0) #4
  br label %lean_dec.exit22

lean_dec.exit22:                                  ; preds = %33, %32, %30, %lean_inc.exit
  %34 = ptrtoint ptr %1 to i64
  %35 = and i64 %34, 1
  %.not35 = icmp eq i64 %35, 0
  br i1 %.not35, label %lean_nat_eq.exit, label %36, !prof !12

36:                                               ; preds = %lean_dec.exit22
  %37 = icmp eq ptr %1, inttoptr (i64 1 to ptr)
  br i1 %37, label %56, label %39

lean_nat_eq.exit:                                 ; preds = %lean_dec.exit22
  %38 = tail call zeroext i1 @lean_nat_big_eq(ptr noundef %1, ptr noundef nonnull inttoptr (i64 1 to ptr)) #4
  br i1 %38, label %56, label %39

39:                                               ; preds = %36, %lean_nat_eq.exit
  %40 = ptrtoint ptr %2 to i64
  %41 = and i64 %40, 1
  %.not37 = icmp eq i64 %41, 0
  br i1 %.not37, label %42, label %lean_dec.exit21

42:                                               ; preds = %39
  %43 = load i32, ptr %2, align 4, !tbaa !4
  %44 = icmp sgt i32 %43, 1
  br i1 %44, label %45, label %47, !prof !9

45:                                               ; preds = %42
  %46 = add nsw i32 %43, -1
  store i32 %46, ptr %2, align 4, !tbaa !4
  br label %lean_dec.exit21

47:                                               ; preds = %42
  %.not.i24 = icmp eq i32 %43, 0
  br i1 %.not.i24, label %lean_dec.exit21, label %48

48:                                               ; preds = %47
  tail call void @lean_dec_ref_cold(ptr noundef nonnull %2) #4
  br label %lean_dec.exit21

lean_dec.exit21:                                  ; preds = %48, %47, %45, %39
  br i1 %.not35, label %.critedge.i, label %49, !prof !12

49:                                               ; preds = %lean_dec.exit21
  %50 = icmp ult ptr %1, inttoptr (i64 2 to ptr)
  br i1 %50, label %lean_nat_sub.exit, label %51

51:                                               ; preds = %49
  %52 = add i64 %34, -2
  %53 = inttoptr i64 %52 to ptr
  br label %lean_nat_sub.exit

.critedge.i:                                      ; preds = %lean_dec.exit21
  %54 = tail call ptr @lean_nat_big_sub(ptr noundef %1, ptr noundef nonnull inttoptr (i64 3 to ptr)) #4
  br label %lean_nat_sub.exit

lean_nat_sub.exit:                                ; preds = %49, %51, %.critedge.i
  %.1.i = phi ptr [ %54, %.critedge.i ], [ %53, %51 ], [ inttoptr (i64 1 to ptr), %49 ]
  %55 = tail call ptr @lean_apply_4(ptr noundef %3, ptr noundef %6, ptr noundef %16, ptr noundef %.1.i, ptr noundef nonnull inttoptr (i64 1 to ptr)) #4
  br label %67

56:                                               ; preds = %36, %lean_nat_eq.exit
  %57 = ptrtoint ptr %3 to i64
  %58 = and i64 %57, 1
  %.not36 = icmp eq i64 %58, 0
  br i1 %.not36, label %59, label %lean_dec.exit

59:                                               ; preds = %56
  %60 = load i32, ptr %3, align 4, !tbaa !4
  %61 = icmp sgt i32 %60, 1
  br i1 %61, label %62, label %64, !prof !9

62:                                               ; preds = %59
  %63 = add nsw i32 %60, -1
  store i32 %63, ptr %3, align 4, !tbaa !4
  br label %lean_dec.exit

64:                                               ; preds = %59
  %.not.i26 = icmp eq i32 %60, 0
  br i1 %.not.i26, label %lean_dec.exit, label %65

65:                                               ; preds = %64
  tail call void @lean_dec_ref_cold(ptr noundef nonnull %3) #4
  br label %lean_dec.exit

lean_dec.exit:                                    ; preds = %65, %64, %62, %56
  %66 = tail call ptr @lean_apply_3(ptr noundef %2, ptr noundef %6, ptr noundef %16, ptr noundef nonnull inttoptr (i64 1 to ptr)) #4
  br label %67

67:                                               ; preds = %lean_dec.exit, %lean_nat_sub.exit
  %.0 = phi ptr [ %55, %lean_nat_sub.exit ], [ %66, %lean_dec.exit ]
  ret ptr %.0
}